; Function Attrs: mustprogress noreturn uwtable
define hidden void @_ZN6Assimp3MD59MD5Parser11ReportErrorEPKcj(ptr noundef %error, i32 noundef %line) local_unnamed_addr #4 align 2 personality ptr @__gxx_personality_v0 {
entry:
  %szBuffer = alloca [1024 x i8], align 16
  %call = call i32 (ptr, i64, ptr, ...) @snprintf(ptr noundef nonnull dereferenceable(1) %szBuffer, i64 noundef 1024, ptr noundef nonnull @.str.2, i32 noundef %line, ptr noundef %error) #18
  %exception = tail call ptr @__cxa_allocate_exception(i64 16) #18
  invoke void @_ZN17DeadlyImportErrorC2IJRA1024_cEEEDpOT_(ptr noundef nonnull align 8 dereferenceable(16) %exception, ptr noundef nonnull align 1 dereferenceable(1024) %szBuffer)
          to label %invoke.cont unwind label %lpad

invoke.cont:                                      ; preds = %entry
  call void @__cxa_throw(ptr nonnull %exception, ptr nonnull @_ZTI17DeadlyImportError, ptr nonnull @_ZN17DeadlyImportErrorD2Ev) #20
  unreachable

lpad:                                             ; preds = %entry
  %0 = landingpad { ptr, i32 }
          cleanup
  call void @__cxa_free_exception(ptr %exception) #18
  resume { ptr, i32 } %0
}